target datalayout = "e-m:e-p270:32:32-p271:32:32-p272:64:64-i64:64-i128:128-f80:128-n8:16:32:64-S128"
target triple = "x86_64-pc-linux-gnu"

%"struct.faiss::VectorTransform" = type <{ ptr, i32, i32, i8, [7 x i8] }>

; Function Attrs: mustprogress uwtable
define noundef ptr @_ZNK5faiss15VectorTransform5applyElPKf(ptr noundef nonnull align 8 dereferenceable(17) %0, i64 noundef %1, ptr noundef %2) #1 align 2 {
  %4 = alloca ptr, align 8
  %5 = alloca i64, align 8
  %6 = alloca ptr, align 8
  %7 = alloca ptr, align 8
  store ptr %0, ptr %4, align 8, !tbaa !4
  store i64 %1, ptr %5, align 8, !tbaa !9
  store ptr %2, ptr %6, align 8, !tbaa !11
  %8 = load ptr, ptr %4, align 8
  call void @llvm.lifetime.start.p0(i64 8, ptr %7) #19
  %9 = load i64, ptr %5, align 8, !tbaa !9
  %10 = getelementptr inbounds nuw %"struct.faiss::VectorTransform", ptr %8, i32 0, i32 2
  %11 = load i32, ptr %10, align 4, !tbaa !28
  %12 = sext i32 %11 to i64
  %13 = mul nsw i64 %9, %12
  %14 = call { i64, i1 } @llvm.umul.with.overflow.i64(i64 %13, i64 4)
  %15 = extractvalue { i64, i1 } %14, 1
  %16 = extractvalue { i64, i1 } %14, 0
  %17 = select i1 %15, i64 -1, i64 %16
  %18 = call noalias noundef nonnull ptr @_Znam(i64 noundef %17) #23
  store ptr %18, ptr %7, align 8, !tbaa !11
  %19 = load i64, ptr %5, align 8, !tbaa !9
  %20 = load ptr, ptr %6, align 8, !tbaa !11
  %21 = load ptr, ptr %7, align 8, !tbaa !11
  %22 = load ptr, ptr %8, align 8, !tbaa !44
  %23 = getelementptr inbounds ptr, ptr %22, i64 1
  %24 = load ptr, ptr %23, align 8
  call void %24(ptr noundef nonnull align 8 dereferenceable(17) %8, i64 noundef %19, ptr noundef %20, ptr noundef %21)
  %25 = load ptr, ptr %7, align 8, !tbaa !11
  call void @llvm.lifetime.end.p0(i64 8, ptr %7) #19
  ret ptr %25
}