; Function Attrs: mustprogress uwtable
define noundef nonnull ptr @_ZNK5faiss15VectorTransform5applyElPKf(ptr noundef nonnull align 8 dereferenceable(17) %0, i64 noundef %1, ptr noundef %2) local_unnamed_addr #3 align 2 {
  %4 = getelementptr inbounds nuw i8, ptr %0, i64 12
  %5 = load i32, ptr %4, align 4, !tbaa !29
  %6 = sext i32 %5 to i64
  %7 = mul nsw i64 %1, %6
  %8 = icmp ugt i64 %7, 4611686018427387903
  %9 = shl i64 %7, 2
  %10 = select i1 %8, i64 -1, i64 %9
  %11 = tail call noalias noundef nonnull ptr @_Znam(i64 noundef %10) #32
  %12 = load ptr, ptr %0, align 8, !tbaa !41
  %13 = getelementptr inbounds nuw i8, ptr %12, i64 8
  %14 = load ptr, ptr %13, align 8
  tail call void %14(ptr noundef nonnull align 8 dereferenceable(17) %0, i64 noundef %1, ptr noundef %2, ptr noundef nonnull %11)
  ret ptr %11
}